Certificate:
    Data:
        Version: 3 (0x2)
        Serial Number: 1 (0x1)
    Signature Algorithm: sha256WithRSAEncryption
        Issuer: CN=devcert
        Validity
            Not Before: Apr 26 22:19:30 2020 GMT
            Not After : Jul 30 22:19:30 2022 GMT
        Subject: CN=localhost
        Subject Public Key Info:
            Public Key Algorithm: rsaEncryption
                Public-Key: (2048 bit)
                Modulus:
                    00:d4:7e:e4:ae:0c:5f:4f:7d:b8:50:6b:ca:9c:58:
                    10:49:d5:74:1b:18:c8:20:f2:05:b9:42:6b:3c:db:
                    89:13:09:0d:c9:16:de:09:dd:bf:9b:99:ea:82:c9:
                    00:26:23:78:9e:ea:19:db:b9:f8:96:71:2a:75:1f:
                    4f:c0:b8:27:06:b6:4a:9f:2f:ed:f1:14:b2:cf:d5:
                    e4:23:5b:98:54:a8:f9:d9:25:ce:9b:0a:19:a0:98:
                    92:e7:43:4a:65:fc:8d:9a:e5:6c:cc:2e:35:58:12:
                    b1:ae:13:f8:fa:2a:b5:d8:3c:28:32:fe:e7:fe:29:
                    c4:e6:98:b0:2a:aa:5a:44:5d:ad:db:0a:53:e2:c1:
                    3a:6e:24:f2:45:5e:1f:f2:b6:53:1f:b7:ed:c4:37:
                    23:d2:e9:84:41:0d:a2:9a:e7:0f:c2:2c:be:72:8e:
                    a5:04:43:fa:80:a8:e4:b5:07:ec:ff:fc:f7:f3:8f:
                    f0:f2:e3:b5:56:76:c6:b3:a1:51:ba:08:18:77:cf:
                    42:1b:a0:c0:1c:f3:6c:5f:9e:91:04:14:d1:c3:01:
                    c7:02:3c:f6:d0:4f:18:be:3c:1f:96:b7:59:4d:f5:
                    f6:cf:63:93:5a:dc:cf:1c:dd:d5:e9:ee:4b:09:29:
                    7f:2e:1c:f5:81:64:ef:83:af:9b:4d:f1:71:4a:01:
                    d8:55
                Exponent: 65537 (0x10001)
        X509v3 extensions:
            X509v3 Basic Constraints: critical
                CA:FALSE
            X509v3 Subject Key Identifier: 
                62:66:F3:85:D8:CC:7A:AE:E3:2C:A8:6C:DC:5A:08:90:69:C6:45:64
            X509v3 Authority Key Identifier: 
                keyid:0A:DF:84:C5:BE:B1:00:D1:39:64:EE:F0:F0:E9:7A:4C:60:CA:D2:86
                DirName:/CN=devcert
                serial:84:E3:15:BC:50:0B:3A:B1

            X509v3 Key Usage: critical
                Digital Signature, Key Encipherment
            X509v3 Extended Key Usage: 
                TLS Web Server Authentication
            X509v3 Subject Alternative Name: 
                DNS:localhost, DNS:*.localhost
    Signature Algorithm: sha256WithRSAEncryption
         73:d4:5a:62:44:d2:32:11:e7:de:ca:4f:85:da:26:61:c5:64:
         a9:05:9a:3d:5d:5b:dc:bf:ef:bf:78:fb:c5:84:c2:22:df:19:
         1a:32:f8:e3:2d:54:a7:1b:19:46:b4:12:8d:5a:04:36:b3:ed:
         23:f9:00:c0:be:64:1e:08:2e:c9:d4:06:34:fb:41:a2:a1:d5:
         dd:6c:88:7e:d0:77:6a:65:93:02:0d:69:4a:e3:d3:7c:c9:fb:
         4b:1a:20:29:b9:53:0e:ca:55:cd:c7:0f:8b:51:e4:45:40:46:
         92:d5:ab:50:37:d4:74:b9:d7:ca:80:10:6c:e4:4b:08:d5:a1:
         78:11:bd:8f:80:31:db:33:c4:ef:aa:96:20:8d:bf:0b:dc:69:
         66:a1:d8:40:b1:d3:c6:c6:47:2f:93:94:3b:d7:2f:ae:ce:74:
         90:42:05:aa:c1:25:4d:72:6a:86:17:e8:0d:15:9c:78:da:8f:
         4c:ed:c6:bb:72:7b:8e:d2:99:ce:8d:06:ae:e4:45:fe:fc:60:
         c6:42:0a:a1:d8:6e:bb:79:dc:b3:e7:15:13:82:d5:e7:1a:be:
         dd:20:fd:64:5c:1a:fd:2d:9c:92:c5:83:c3:76:0c:cd:64:1e:
         f8:c7:fe:d0:5b:ca:34:97:53:08:fa:5f:13:e1:dd:fa:68:0a:
         5e:1a:7e:92
-----BEGIN CERTIFICATE-----
MIIDXjCCAkagAwIBAgIBATANBgkqhkiG9w0BAQsFADASMRAwDgYDVQQDDAdkZXZj
ZXJ0MB4XDTIwMDQyNjIyMTkzMFoXDTIyMDczMDIyMTkzMFowFDESMBAGA1UEAwwJ
bG9jYWxob3N0MIIBIjANBgkqhkiG9w0BAQEFAAOCAQ8AMIIBCgKCAQEA1H7krgxf
T324UGvKnFgQSdV0GxjIIPIFuUJrPNuJEwkNyRbeCd2/m5nqgskAJiN4nuoZ27n4
lnEqdR9PwLgnBrZKny/t8RSyz9XkI1uYVKj52SXOmwoZoJiS50NKZfyNmuVszC41
WBKxrhP4+iq12DwoMv7n/inE5piwKqpaRF2t2wpT4sE6biTyRV4f8rZTH7ftxDcj
0umEQQ2imucPwiy+co6lBEP6gKjktQfs//z384/w8uO1VnbGs6FRuggYd89CG6DA
HPNsX56RBBTRwwHHAjz20E8YvjwflrdZTfX2z2OTWtzPHN3V6e5LCSl/Lhz1gWTv
g6+bTfFxSgHYVQIDAQABo4G8MIG5MAwGA1UdEwEB/wQCMAAwHQYDVR0OBBYEFGJm
84XYzHqu4yyobNxaCJBpxkVkMEIGA1UdIwQ7MDmAFArfhMW+sQDROWTu8PDpekxg
ytKGoRakFDASMRAwDgYDVQQDDAdkZXZjZXJ0ggkAhOMVvFALOrEwDgYDVR0PAQH/
BAQDAgWgMBMGA1UdJQQMMAoGCCsGAQUFBwMBMCEGA1UdEQQaMBiCCWxvY2FsaG9z
dIILKi5sb2NhbGhvc3QwDQYJKoZIhvcNAQELBQADggEBAHPUWmJE0jIR597KT4Xa
JmHFZKkFmj1dW9y/7794+8WEwiLfGRoy+OMtVKcbGUa0Eo1aBDaz7SP5AMC+ZB4I
LsnUBjT7QaKh1d1siH7Qd2plkwINaUrj03zJ+0saICm5Uw7KVc3HD4tR5EVARpLV
q1A31HS518qAEGzkSwjVoXgRvY+AMdszxO+qliCNvwvcaWah2ECx08bGRy+TlDvX
L67OdJBCBarBJU1yaoYX6A0VnHjaj0ztxrtye47Smc6NBq7kRf78YMZCCqHYbrt5
3LPnFROC1ecavt0g/WRcGv0tnJLFg8N2DM1kHvjH/tBbyjSXUwj6XxPh3fpoCl4a
fpI=
-----END CERTIFICATE-----
